target datalayout = "e-m:e-p270:32:32-p271:32:32-p272:64:64-i64:64-i128:128-f80:128-n8:16:32:64-S128"
target triple = "x86_64-pc-linux-gnu"

%"class.gmx::InconsistentInputError" = type { %"class.gmx::UserInputError" }
%"class.gmx::UserInputError" = type { %"class.gmx::GromacsException" }
%"class.gmx::GromacsException" = type { %"class.std::exception", %"class.std::shared_ptr" }
%"class.std::exception" = type { ptr }
%"class.std::shared_ptr" = type { %"class.std::__shared_ptr" }
%"class.std::__shared_ptr" = type { ptr, %"class.std::__shared_count" }
%"class.std::__shared_count" = type { ptr }
%"class.gmx::ExceptionInitializer" = type { %"class.std::__cxx11::basic_string", %"class.std::vector.47" }
%"class.std::__cxx11::basic_string" = type { %"struct.std::__cxx11::basic_string<char>::_Alloc_hider", i64, %union.anon.46 }
%"struct.std::__cxx11::basic_string<char>::_Alloc_hider" = type { ptr }
%union.anon.46 = type { i64, [8 x i8] }
%"class.std::vector.47" = type { %"struct.std::_Vector_base.48" }
%"struct.std::_Vector_base.48" = type { %"struct.std::_Vector_base<std::__exception_ptr::exception_ptr, std::allocator<std::__exception_ptr::exception_ptr>>::_Vector_impl" }
%"struct.std::_Vector_base<std::__exception_ptr::exception_ptr, std::allocator<std::__exception_ptr::exception_ptr>>::_Vector_impl" = type { %"struct.std::_Vector_base<std::__exception_ptr::exception_ptr, std::allocator<std::__exception_ptr::exception_ptr>>::_Vector_impl_data" }
%"struct.std::_Vector_base<std::__exception_ptr::exception_ptr, std::allocator<std::__exception_ptr::exception_ptr>>::_Vector_impl_data" = type { ptr, ptr, ptr }
%"class.gmx::ExceptionInfo" = type { %"class.gmx::internal::IExceptionInfo", %"struct.gmx::ThrowLocation" }
%"class.gmx::internal::IExceptionInfo" = type { ptr }
%"struct.gmx::ThrowLocation" = type <{ ptr, ptr, i32, [4 x i8] }>

@.str.21 = private unnamed_addr constant [129 x i8] c"generated/home/dtcxzyw/WorkSpace/Projects/compilers/llvm-opt-benchmark/bench/gromacs/gromacs/src/gromacs/selection/sm_simple.cpp\00", align 1
@_ZTIN3gmx22InconsistentInputErrorE = external constant ptr
@_ZTVN3gmx8internal14IExceptionInfoE = available_externally unnamed_addr constant { [4 x ptr] } { [4 x ptr] [ptr null, ptr @_ZTIN3gmx8internal14IExceptionInfoE, ptr @_ZN3gmx8internal14IExceptionInfoD1Ev, ptr @_ZN3gmx8internal14IExceptionInfoD0Ev] }, align 8
@_ZTVN3gmx22InconsistentInputErrorE = external unnamed_addr constant { [6 x ptr] }, align 8
@_ZTVN3gmx14UserInputErrorE = linkonce_odr unnamed_addr constant { [6 x ptr] } { [6 x ptr] [ptr null, ptr @_ZTIN3gmx14UserInputErrorE, ptr @_ZN3gmx16GromacsExceptionD2Ev, ptr @_ZN3gmx14UserInputErrorD0Ev, ptr @_ZNK3gmx16GromacsException4whatEv, ptr @__cxa_pure_virtual] }, comdat, align 8
@.str.50 = private unnamed_addr constant [34 x i8] c"Charges not available in topology\00", align 1
@__PRETTY_FUNCTION__._ZL12check_chargePK10gmx_mtop_tiP18gmx_ana_selparam_tPv = private unnamed_addr constant [73 x i8] c"void check_charge(const gmx_mtop_t *, int, gmx_ana_selparam_t *, void *)\00", align 1

; Function Attrs: mustprogress nounwind uwtable
define linkonce_odr void @_ZN3gmx8internal14IExceptionInfoC2Ev(ptr noundef nonnull align 8 dereferenceable(8) %0) unnamed_addr #2 comdat align 2 {
  %2 = alloca ptr, align 8
  store ptr %0, ptr %2, align 8, !tbaa !165
  %3 = load ptr, ptr %2, align 8
  store ptr getelementptr inbounds inrange(-16, 16) ({ [4 x ptr] }, ptr @_ZTVN3gmx8internal14IExceptionInfoE, i32 0, i32 0, i32 2), ptr %3, align 8, !tbaa !152
  ret void
}

; Function Attrs: mustprogress uwtable
define linkonce_odr void @_ZN3gmx14UserInputErrorC2ERKNS_20ExceptionInitializerE(ptr noundef nonnull align 8 dereferenceable(24) %0, ptr noundef nonnull align 8 dereferenceable(56) %1) unnamed_addr #0 comdat align 2 {
  %3 = alloca ptr, align 8
  %4 = alloca ptr, align 8
  store ptr %0, ptr %3, align 8, !tbaa !193
  store ptr %1, ptr %4, align 8, !tbaa !150
  %5 = load ptr, ptr %3, align 8
  %6 = load ptr, ptr %4, align 8, !tbaa !150
  call void @_ZN3gmx16GromacsExceptionC2ERKNS_20ExceptionInitializerE(ptr noundef nonnull align 8 dereferenceable(24) %5, ptr noundef nonnull align 8 dereferenceable(56) %6)
  store ptr getelementptr inbounds inrange(-16, 32) ({ [6 x ptr] }, ptr @_ZTVN3gmx14UserInputErrorE, i32 0, i32 0, i32 2), ptr %5, align 8, !tbaa !152
  ret void
}

; Function Attrs: mustprogress nounwind uwtable
define linkonce_odr void @_ZN3gmx13ExceptionInfoINS_22ExceptionInfoLocation_ENS_13ThrowLocationEEC2ERKS2_(ptr noundef nonnull align 8 dereferenceable(32) %0, ptr noundef nonnull align 8 dereferenceable(20) %1) unnamed_addr #2 comdat align 2 {
  %3 = alloca ptr, align 8
  %4 = alloca ptr, align 8
  store ptr %0, ptr %3, align 8, !tbaa !148
  store ptr %1, ptr %4, align 8, !tbaa !154
  %5 = load ptr, ptr %3, align 8
  call void @_ZN3gmx8internal14IExceptionInfoC2Ev(ptr noundef nonnull align 8 dereferenceable(8) %5) #18
  store ptr getelementptr inbounds inrange(-16, 16) ({ [4 x ptr] }, ptr @_ZTVN3gmx13ExceptionInfoINS_22ExceptionInfoLocation_ENS_13ThrowLocationEEE, i32 0, i32 0, i32 2), ptr %5, align 8, !tbaa !152
  %6 = getelementptr inbounds nuw %"class.gmx::ExceptionInfo", ptr %5, i32 0, i32 1
  %7 = load ptr, ptr %4, align 8, !tbaa !154
  call void @llvm.memcpy.p0.p0.i64(ptr align 8 %6, ptr align 8 %7, i64 24, i1 false), !tbaa.struct !160
  ret void
}

; Function Attrs: mustprogress nounwind uwtable
define linkonce_odr void @_ZN3gmx13ThrowLocationC2EPKcS2_i(ptr noundef nonnull align 8 dereferenceable(20) %0, ptr noundef %1, ptr noundef %2, i32 noundef %3) unnamed_addr #2 comdat align 2 {
  %5 = alloca ptr, align 8
  %6 = alloca ptr, align 8
  %7 = alloca ptr, align 8
  %8 = alloca i32, align 4
  store ptr %0, ptr %5, align 8, !tbaa !154
  store ptr %1, ptr %6, align 8, !tbaa !58
  store ptr %2, ptr %7, align 8, !tbaa !58
  store i32 %3, ptr %8, align 4, !tbaa !22
  %9 = load ptr, ptr %5, align 8
  %10 = getelementptr inbounds nuw %"struct.gmx::ThrowLocation", ptr %9, i32 0, i32 0
  %11 = load ptr, ptr %6, align 8, !tbaa !58
  store ptr %11, ptr %10, align 8, !tbaa !156
  %12 = getelementptr inbounds nuw %"struct.gmx::ThrowLocation", ptr %9, i32 0, i32 1
  %13 = load ptr, ptr %7, align 8, !tbaa !58
  store ptr %13, ptr %12, align 8, !tbaa !158
  %14 = getelementptr inbounds nuw %"struct.gmx::ThrowLocation", ptr %9, i32 0, i32 2
  %15 = load i32, ptr %8, align 4, !tbaa !22
  store i32 %15, ptr %14, align 8, !tbaa !159
  ret void
}

; Function Attrs: mustprogress uwtable
define linkonce_odr void @_ZN3gmx22InconsistentInputErrorC2ERKNS_20ExceptionInitializerE(ptr noundef nonnull align 8 dereferenceable(24) %0, ptr noundef nonnull align 8 dereferenceable(56) %1) unnamed_addr #0 comdat align 2 {
  %3 = alloca ptr, align 8
  %4 = alloca ptr, align 8
  store ptr %0, ptr %3, align 8, !tbaa !146
  store ptr %1, ptr %4, align 8, !tbaa !150
  %5 = load ptr, ptr %3, align 8
  %6 = load ptr, ptr %4, align 8, !tbaa !150
  call void @_ZN3gmx14UserInputErrorC2ERKNS_20ExceptionInitializerE(ptr noundef nonnull align 8 dereferenceable(24) %5, ptr noundef nonnull align 8 dereferenceable(56) %6)
  store ptr getelementptr inbounds inrange(-16, 32) ({ [6 x ptr] }, ptr @_ZTVN3gmx22InconsistentInputErrorE, i32 0, i32 0, i32 2), ptr %5, align 8, !tbaa !152
  ret void
}

; Function Attrs: mustprogress uwtable
define internal void @_ZL12check_chargePK10gmx_mtop_tiP18gmx_ana_selparam_tPv(ptr noundef %0, i32 noundef %1, ptr noundef %2, ptr noundef %3) #0 personality ptr @__gxx_personality_v0 {
  %5 = alloca ptr, align 8
  %6 = alloca i32, align 4
  %7 = alloca ptr, align 8
  %8 = alloca ptr, align 8
  %9 = alloca %"class.gmx::InconsistentInputError", align 8
  %10 = alloca %"class.gmx::ExceptionInitializer", align 8
  %11 = alloca ptr, align 8
  %12 = alloca i32, align 4
  %13 = alloca %"class.gmx::ExceptionInfo", align 8
  %14 = alloca %"struct.gmx::ThrowLocation", align 8
  %15 = alloca i1, align 1
  store ptr %0, ptr %5, align 8, !tbaa !32
  store i32 %1, ptr %6, align 4, !tbaa !22
  store ptr %2, ptr %7, align 8, !tbaa !139
  store ptr %3, ptr %8, align 8, !tbaa !13
  %16 = load ptr, ptr %5, align 8, !tbaa !32
  %17 = call noundef zeroext i1 @_Z20gmx_mtop_has_chargesPK10gmx_mtop_t(ptr noundef %16)
  br i1 %17, label %47, label %18

18:                                               ; preds = %4
  store i1 true, ptr %15, align 1
  %19 = call ptr @__cxa_allocate_exception(i64 24) #18
  call void @llvm.lifetime.start.p0(i64 56, ptr %10) #18
  invoke void @_ZN3gmx20ExceptionInitializerC2EPKc(ptr noundef nonnull align 8 dereferenceable(56) %10, ptr noundef @.str.50)
          to label %20 unwind label %25

20:                                               ; preds = %18
  invoke void @_ZN3gmx22InconsistentInputErrorC2ERKNS_20ExceptionInitializerE(ptr noundef nonnull align 8 dereferenceable(24) %9, ptr noundef nonnull align 8 dereferenceable(56) %10)
          to label %21 unwind label %29

21:                                               ; preds = %20
  call void @llvm.lifetime.start.p0(i64 32, ptr %13) #18
  call void @llvm.lifetime.start.p0(i64 24, ptr %14) #18
  invoke void @_ZN3gmx13ThrowLocationC2EPKcS2_i(ptr noundef nonnull align 8 dereferenceable(20) %14, ptr noundef @__PRETTY_FUNCTION__._ZL12check_chargePK10gmx_mtop_tiP18gmx_ana_selparam_tPv, ptr noundef @.str.21, i32 noundef 687)
          to label %22 unwind label %33

22:                                               ; preds = %21
  invoke void @_ZN3gmx13ExceptionInfoINS_22ExceptionInfoLocation_ENS_13ThrowLocationEEC2ERKS2_(ptr noundef nonnull align 8 dereferenceable(32) %13, ptr noundef nonnull align 8 dereferenceable(20) %14)
          to label %23 unwind label %33

23:                                               ; preds = %22
  invoke void @_ZN3gmxlsINS_22InconsistentInputErrorENS_22ExceptionInfoLocation_ENS_13ThrowLocationEEENSt9enable_ifIXsr3stdE12is_base_of_vINS_16GromacsExceptionET_EES6_E4typeES6_RKNS_13ExceptionInfoIT0_T1_EE(ptr dead_on_unwind writable sret(%"class.gmx::InconsistentInputError") align 8 %19, ptr noundef %9, ptr noundef nonnull align 8 dereferenceable(32) %13)
          to label %24 unwind label %37

24:                                               ; preds = %23
  store i1 false, ptr %15, align 1
  invoke void @__cxa_throw(ptr %19, ptr @_ZTIN3gmx22InconsistentInputErrorE, ptr @_ZN3gmx16GromacsExceptionD2Ev) #19
          to label %53 unwind label %37

25:                                               ; preds = %18
  %26 = landingpad { ptr, i32 }
          cleanup
  %27 = extractvalue { ptr, i32 } %26, 0
  store ptr %27, ptr %11, align 8
  %28 = extractvalue { ptr, i32 } %26, 1
  store i32 %28, ptr %12, align 4
  br label %43

29:                                               ; preds = %20
  %30 = landingpad { ptr, i32 }
          cleanup
  %31 = extractvalue { ptr, i32 } %30, 0
  store ptr %31, ptr %11, align 8
  %32 = extractvalue { ptr, i32 } %30, 1
  store i32 %32, ptr %12, align 4
  br label %42

33:                                               ; preds = %22, %21
  %34 = landingpad { ptr, i32 }
          cleanup
  %35 = extractvalue { ptr, i32 } %34, 0
  store ptr %35, ptr %11, align 8
  %36 = extractvalue { ptr, i32 } %34, 1
  store i32 %36, ptr %12, align 4
  br label %41

37:                                               ; preds = %24, %23
  %38 = landingpad { ptr, i32 }
          cleanup
  %39 = extractvalue { ptr, i32 } %38, 0
  store ptr %39, ptr %11, align 8
  %40 = extractvalue { ptr, i32 } %38, 1
  store i32 %40, ptr %12, align 4
  call void @_ZN3gmx8internal14IExceptionInfoD2Ev(ptr noundef nonnull align 8 dereferenceable(32) %13) #18
  br label %41

41:                                               ; preds = %37, %33
  call void @llvm.lifetime.end.p0(i64 24, ptr %14) #18
  call void @llvm.lifetime.end.p0(i64 32, ptr %13) #18
  call void @_ZN3gmx16GromacsExceptionD2Ev(ptr noundef nonnull align 8 dereferenceable(24) %9) #18
  br label %42

42:                                               ; preds = %41, %29
  call void @_ZN3gmx20ExceptionInitializerD2Ev(ptr noundef nonnull align 8 dereferenceable(56) %10) #18
  br label %43

43:                                               ; preds = %42, %25
  call void @llvm.lifetime.end.p0(i64 56, ptr %10) #18
  %44 = load i1, ptr %15, align 1
  br i1 %44, label %45, label %46

45:                                               ; preds = %43
  call void @__cxa_free_exception(ptr %19) #18
  br label %46

46:                                               ; preds = %45, %43
  br label %48

47:                                               ; preds = %4
  ret void

48:                                               ; preds = %46
  %49 = load ptr, ptr %11, align 8
  %50 = load i32, ptr %12, align 4
  %51 = insertvalue { ptr, i32 } poison, ptr %49, 0
  %52 = insertvalue { ptr, i32 } %51, i32 %50, 1
  resume { ptr, i32 } %52

53:                                               ; preds = %24
  unreachable
}