; Function Attrs: mustprogress uwtable
define internal void @_ZL12check_chargePK10gmx_mtop_tiP18gmx_ana_selparam_tPv(ptr noundef %0, i32 %1, ptr readnone captures(none) %2, ptr readnone captures(none) %3) #0 personality ptr @__gxx_personality_v0 {
  %5 = alloca %"class.gmx::InconsistentInputError", align 8
  %6 = alloca %"class.gmx::ExceptionInitializer", align 8
  %7 = alloca %"class.gmx::ExceptionInfo", align 8
  %8 = tail call noundef zeroext i1 @_Z20gmx_mtop_has_chargesPK10gmx_mtop_t(ptr noundef %0)
  br i1 %8, label %20, label %9

9:                                                ; preds = %4
  %10 = tail call ptr @__cxa_allocate_exception(i64 24) #20
  call void @llvm.lifetime.start.p0(i64 56, ptr nonnull %6) #20
  invoke void @_ZN3gmx20ExceptionInitializerC2EPKc(ptr noundef nonnull align 8 dereferenceable(56) %6, ptr noundef nonnull @.str.50)
          to label %11 unwind label %.thread

11:                                               ; preds = %9
  invoke void @_ZN3gmx16GromacsExceptionC2ERKNS_20ExceptionInitializerE(ptr noundef nonnull align 8 dereferenceable(24) %5, ptr noundef nonnull align 8 dereferenceable(56) %6)
          to label %12 unwind label %.thread13

12:                                               ; preds = %11
  store ptr getelementptr inbounds nuw inrange(-16, 32) (i8, ptr @_ZTVN3gmx22InconsistentInputErrorE, i64 16), ptr %5, align 8, !tbaa !116
  call void @llvm.lifetime.start.p0(i64 32, ptr nonnull %7) #20
  store ptr getelementptr inbounds nuw inrange(-16, 16) (i8, ptr @_ZTVN3gmx13ExceptionInfoINS_22ExceptionInfoLocation_ENS_13ThrowLocationEEE, i64 16), ptr %7, align 8, !tbaa !116
  %13 = getelementptr inbounds nuw i8, ptr %7, i64 8
  store ptr @__PRETTY_FUNCTION__._ZL12check_chargePK10gmx_mtop_tiP18gmx_ana_selparam_tPv, ptr %13, align 8, !tbaa !118
  %.sroa.4.0..sroa_idx = getelementptr inbounds nuw i8, ptr %7, i64 16
  store ptr @.str.21, ptr %.sroa.4.0..sroa_idx, align 8, !tbaa !118
  %.sroa.5.0..sroa_idx = getelementptr inbounds nuw i8, ptr %7, i64 24
  store i32 687, ptr %.sroa.5.0..sroa_idx, align 8, !tbaa !16
  invoke void @_ZN3gmxlsINS_22InconsistentInputErrorENS_22ExceptionInfoLocation_ENS_13ThrowLocationEEENSt9enable_ifIXsr3stdE12is_base_of_vINS_16GromacsExceptionET_EES6_E4typeES6_RKNS_13ExceptionInfoIT0_T1_EE(ptr dead_on_unwind writable sret(%"class.gmx::InconsistentInputError") align 8 %10, ptr noundef nonnull %5, ptr noundef nonnull align 8 dereferenceable(32) %7)
          to label %14 unwind label %17

14:                                               ; preds = %12
  invoke void @__cxa_throw(ptr %10, ptr nonnull @_ZTIN3gmx22InconsistentInputErrorE, ptr nonnull @_ZN3gmx16GromacsExceptionD2Ev) #21
          to label %22 unwind label %17

.thread:                                          ; preds = %9
  %15 = landingpad { ptr, i32 }
          cleanup
  br label %.sink.split

.thread13:                                        ; preds = %11
  %16 = landingpad { ptr, i32 }
          cleanup
  call void @_ZN3gmx20ExceptionInitializerD2Ev(ptr noundef nonnull align 8 dereferenceable(56) %6) #20
  br label %.sink.split

17:                                               ; preds = %12, %14
  %.0 = phi i1 [ false, %14 ], [ true, %12 ]
  %18 = landingpad { ptr, i32 }
          cleanup
  call void @_ZN3gmx8internal14IExceptionInfoD2Ev(ptr noundef nonnull align 8 dereferenceable(32) %7) #20
  call void @llvm.lifetime.end.p0(i64 32, ptr nonnull %7) #20
  call void @_ZN3gmx16GromacsExceptionD2Ev(ptr noundef nonnull align 8 dereferenceable(24) %5) #20
  call void @_ZN3gmx20ExceptionInitializerD2Ev(ptr noundef nonnull align 8 dereferenceable(56) %6) #20
  call void @llvm.lifetime.end.p0(i64 56, ptr nonnull %6) #20
  br i1 %.0, label %19, label %21

.sink.split:                                      ; preds = %.thread, %.thread13
  %.pn.pn12.ph = phi { ptr, i32 } [ %16, %.thread13 ], [ %15, %.thread ]
  call void @llvm.lifetime.end.p0(i64 56, ptr nonnull %6) #20
  br label %19

19:                                               ; preds = %.sink.split, %17
  %.pn.pn12 = phi { ptr, i32 } [ %18, %17 ], [ %.pn.pn12.ph, %.sink.split ]
  call void @__cxa_free_exception(ptr %10) #20
  br label %21

20:                                               ; preds = %4
  ret void

21:                                               ; preds = %17, %19
  %.pn.pn11 = phi { ptr, i32 } [ %18, %17 ], [ %.pn.pn12, %19 ]
  resume { ptr, i32 } %.pn.pn11

22:                                               ; preds = %14
  unreachable
}